ARM GAS  C:\Users\Oskari\AppData\Local\Temp\cc00NhJ5.s 			page 1


   1              		.syntax unified
   2              		.cpu cortex-m3
   3              		.fpu softvfp
   4              		.eabi_attribute 20, 1
   5              		.eabi_attribute 21, 1
   6              		.eabi_attribute 23, 3
   7              		.eabi_attribute 24, 1
   8              		.eabi_attribute 25, 1
   9              		.eabi_attribute 26, 1
  10              		.eabi_attribute 30, 1
  11              		.eabi_attribute 34, 1
  12              		.eabi_attribute 18, 4
  13              		.thumb
  14              		.file	"main.c"
  15              		.text
  16              	.Ltext0:
  17              		.cfi_sections	.debug_frame
  18              		.global	__aeabi_i2d
  19              		.global	__aeabi_dmul
  20              		.global	__aeabi_dsub
  21              		.global	__aeabi_ddiv
  22              		.global	__aeabi_dcmpge
  23              		.global	__aeabi_dadd
  24              		.global	__aeabi_d2uiz
  25              		.section	.text.main,"ax",%progbits
  26              		.align	2
  27              		.global	main
  28              		.thumb
  29              		.thumb_func
  30              		.type	main, %function
  31              	main:
  32              	.LFB63:
  33              		.file 1 "main.c"
   1:main.c        **** #include <project.h>
   2:main.c        **** #include <stdio.h>
   3:main.c        **** #include "Motor.h"
   4:main.c        **** #include "Ultra.h"
   5:main.c        **** #include "Nunchuk.h"
   6:main.c        **** #include "Reflectance.h"
   7:main.c        **** #include "I2C_made.h"
   8:main.c        **** #include "Gyro.h"
   9:main.c        **** #include "Accel_magnet.h"
  10:main.c        **** #include "IR.h"
  11:main.c        **** #include "Ambient.h"
  12:main.c        **** #include "Beep.h"
  13:main.c        **** #include "math.h"
  14:main.c        **** 
  15:main.c        **** int rread(void);
  16:main.c        **** 
  17:main.c        **** int main()
  18:main.c        **** {
  34              		.loc 1 18 0
  35              		.cfi_startproc
  36              		@ args = 0, pretend = 0, frame = 24
  37              		@ frame_needed = 0, uses_anonymous_args = 0
  38 0000 2DE9F047 		push	{r4, r5, r6, r7, r8, r9, r10, lr}
  39              		.cfi_def_cfa_offset 32
ARM GAS  C:\Users\Oskari\AppData\Local\Temp\cc00NhJ5.s 			page 2


  40              		.cfi_offset 4, -32
  41              		.cfi_offset 5, -28
  42              		.cfi_offset 6, -24
  43              		.cfi_offset 7, -20
  44              		.cfi_offset 8, -16
  45              		.cfi_offset 9, -12
  46              		.cfi_offset 10, -8
  47              		.cfi_offset 14, -4
  48 0004 86B0     		sub	sp, sp, #24
  49              		.cfi_def_cfa_offset 56
  19:main.c        ****     struct sensors_ ref;
  20:main.c        ****     struct sensors_ dig;
  21:main.c        ****     CyGlobalIntEnable; 
  50              		.loc 1 21 0
  51              	@ 21 "main.c" 1
  52 0006 62B6     		CPSIE   i
  53              	@ 0 "" 2
  22:main.c        ****     UART_1_Start();
  54              		.loc 1 22 0
  55              		.thumb
  56 0008 FFF7FEFF 		bl	UART_1_Start
  57              	.LVL0:
  23:main.c        ****   
  24:main.c        ****     int vase;
  25:main.c        ****     int oikee;
  26:main.c        ****     int speedmax = 254;
  27:main.c        ****     double speedOtupla;
  28:main.c        ****     double speedVtupla;
  29:main.c        ****     int mustaviiva = 1;
  30:main.c        **** 
  31:main.c        ****     //starters
  32:main.c        ****     
  33:main.c        ****     reflectance_start();
  58              		.loc 1 33 0
  59 000c FFF7FEFF 		bl	reflectance_start
  60              	.LVL1:
  34:main.c        ****     ADC_Battery_Start();
  61              		.loc 1 34 0
  62 0010 FFF7FEFF 		bl	ADC_Battery_Start
  63              	.LVL2:
  35:main.c        ****     motor_start();
  64              		.loc 1 35 0
  65 0014 FFF7FEFF 		bl	motor_start
  66              	.LVL3:
  36:main.c        ****     IR_led_Write(1);
  67              		.loc 1 36 0
  68 0018 0120     		movs	r0, #1
  69 001a FFF7FEFF 		bl	IR_led_Write
  70              	.LVL4:
  37:main.c        ****     sensor_isr_StartEx(sensor_isr_handler);
  71              		.loc 1 37 0
  72 001e 9848     		ldr	r0, .L23+40
  73 0020 FFF7FEFF 		bl	sensor_isr_StartEx
  74              	.LVL5:
  38:main.c        ****     
  39:main.c        ****     int16 adcresult =0;
  40:main.c        ****     float volts = 0.0;
ARM GAS  C:\Users\Oskari\AppData\Local\Temp\cc00NhJ5.s 			page 3


  41:main.c        ****     
  42:main.c        ****     printf("\nBoot\n");
  75              		.loc 1 42 0
  76 0024 9748     		ldr	r0, .L23+44
  77 0026 FFF7FEFF 		bl	puts
  78              	.LVL6:
  43:main.c        **** 
  44:main.c        ****     //BatteryLed_Write(1); // Switch led on 
  45:main.c        ****     BatteryLed_Write(0); // Switch led off 
  79              		.loc 1 45 0
  80 002a 0020     		movs	r0, #0
  81 002c FFF7FEFF 		bl	BatteryLed_Write
  82              	.LVL7:
  29:main.c        **** 
  83              		.loc 1 29 0
  84 0030 4FF0010A 		mov	r10, #1
  85              	.LVL8:
  86              	.L2:
  87              	.LBB2:
  46:main.c        ****     //uint8 button;
  47:main.c        ****     //button = SW1_Read(); // read SW1 on pSoC board
  48:main.c        ****     
  49:main.c        ****     
  50:main.c        ****     
  51:main.c        ****     /*for (;;){
  52:main.c        ****         
  53:main.c        ****             ADC_Battery_StartConvert();
  54:main.c        ****             if(ADC_Battery_IsEndConversion(ADC_Battery_WAIT_FOR_RESULT)) {   // wait for get ADC co
  55:main.c        ****                 adcresult = ADC_Battery_GetResult16();
  56:main.c        ****                 volts = ADC_Battery_CountsTo_Volts(adcresult);                  // convert value to
  57:main.c        ****     
  58:main.c        ****                 float realvolts = volts * 1.5;
  59:main.c        ****     
  60:main.c        ****                 // If you want to print value
  61:main.c        ****                  //printf("%d %f\r\n",adcresult, realvolts);
  62:main.c        ****             
  63:main.c        ****                 // jos volttim채채r채 pattereissa putoaa alle 4 niin pys채ytt채채 moottorit
  64:main.c        **** 
  65:main.c        ****                 if (realvolts< 4){
  66:main.c        ****                     printf("AKKULOPPU\n");
  67:main.c        ****                     motor_stop();
  68:main.c        ****                 }
  69:main.c        ****             }
  70:main.c        ****     }*/
  71:main.c        ****     
  72:main.c        ****     
  73:main.c        ****     for(;;)
  74:main.c        ****     {
  75:main.c        ****         reflectance_read(&ref);
  88              		.loc 1 75 0
  89 0034 04A8     		add	r0, sp, #16
  90 0036 FFF7FEFF 		bl	reflectance_read
  91              	.LVL9:
  76:main.c        ****        // printf("%d %d %d %d \r\n", ref.l3-5735, ref.l1-4874, ref.r1-4816, ref.r3-7000);       //p
  77:main.c        ****         reflectance_digital(&dig);      //print out 0 or 1 according to results of reflectance peri
  92              		.loc 1 77 0
  93 003a 02A8     		add	r0, sp, #8
ARM GAS  C:\Users\Oskari\AppData\Local\Temp\cc00NhJ5.s 			page 4


  94 003c FFF7FEFF 		bl	reflectance_digital
  95              	.LVL10:
  78:main.c        ****        // printf("%d %d %d %d \r\n", dig.l3, dig.l1, dig.r1, dig.r3);       //print out 0 or 1 acco
  79:main.c        ****         
  80:main.c        ****         CyDelay(5);
  96              		.loc 1 80 0
  97 0040 0520     		movs	r0, #5
  98 0042 FFF7FEFF 		bl	CyDelay
  99              	.LVL11:
  81:main.c        ****         
  82:main.c        ****         // matikkaa
  83:main.c        ****             oikee = ref.r1 + 500;
 100              		.loc 1 83 0
 101 0046 BDF81420 		ldrh	r2, [sp, #20]
 102 004a 02F5FA79 		add	r9, r2, #500
 103              	.LVL12:
  84:main.c        ****             vase = ref.l1 + 500;
 104              		.loc 1 84 0
 105 004e BDF81230 		ldrh	r3, [sp, #18]
 106 0052 03F5FA78 		add	r8, r3, #500
 107              	.LVL13:
  85:main.c        ****         
  86:main.c        **** 
  87:main.c        ****             if (oikee<=11000){
 108              		.loc 1 87 0
 109 0056 42F6F821 		movw	r1, #11000
 110 005a 8945     		cmp	r9, r1
 111 005c 01DC     		bgt	.L3
  88:main.c        ****                 oikee=ref.r1/2;
 112              		.loc 1 88 0
 113 005e 4FEA5209 		lsr	r9, r2, #1
 114              	.LVL14:
 115              	.L3:
  89:main.c        ****             }
  90:main.c        ****             if (vase<=11000){
 116              		.loc 1 90 0
 117 0062 42F6F822 		movw	r2, #11000
 118 0066 9045     		cmp	r8, r2
 119 0068 01DC     		bgt	.L4
  91:main.c        ****                 vase=ref.l1/2;
 120              		.loc 1 91 0
 121 006a 4FEA5308 		lsr	r8, r3, #1
 122              	.LVL15:
 123              	.L4:
  92:main.c        ****             }
  93:main.c        **** 
  94:main.c        ****             //k채yt채mme zumon mittaamia IR arvoja ja muunnamme ne nopeudeksi toisen asteen yht채l
  95:main.c        ****             double speedO = ((0.391571*oikee*oikee)-(3.84672*oikee)-227.19)/1000000;
 124              		.loc 1 95 0
 125 006e 4846     		mov	r0, r9
 126 0070 FFF7FEFF 		bl	__aeabi_i2d
 127              	.LVL16:
 128 0074 0446     		mov	r4, r0
 129 0076 0D46     		mov	r5, r1
 130 0078 77A3     		adr	r3, .L23
 131 007a D3E90023 		ldrd	r2, [r3]
 132 007e FFF7FEFF 		bl	__aeabi_dmul
ARM GAS  C:\Users\Oskari\AppData\Local\Temp\cc00NhJ5.s 			page 5


 133              	.LVL17:
 134 0082 0246     		mov	r2, r0
 135 0084 0B46     		mov	r3, r1
 136 0086 2046     		mov	r0, r4
 137 0088 2946     		mov	r1, r5
 138 008a FFF7FEFF 		bl	__aeabi_dmul
 139              	.LVL18:
 140 008e 0646     		mov	r6, r0
 141 0090 0F46     		mov	r7, r1
 142 0092 2046     		mov	r0, r4
 143 0094 2946     		mov	r1, r5
 144 0096 72A3     		adr	r3, .L23+8
 145 0098 D3E90023 		ldrd	r2, [r3]
 146 009c FFF7FEFF 		bl	__aeabi_dmul
 147              	.LVL19:
 148 00a0 0246     		mov	r2, r0
 149 00a2 0B46     		mov	r3, r1
 150 00a4 3046     		mov	r0, r6
 151 00a6 3946     		mov	r1, r7
 152 00a8 FFF7FEFF 		bl	__aeabi_dsub
 153              	.LVL20:
 154 00ac 6EA3     		adr	r3, .L23+16
 155 00ae D3E90023 		ldrd	r2, [r3]
 156 00b2 FFF7FEFF 		bl	__aeabi_dsub
 157              	.LVL21:
 158 00b6 6EA3     		adr	r3, .L23+24
 159 00b8 D3E90023 		ldrd	r2, [r3]
 160 00bc FFF7FEFF 		bl	__aeabi_ddiv
 161              	.LVL22:
 162 00c0 0646     		mov	r6, r0
 163 00c2 0F46     		mov	r7, r1
 164              	.LVL23:
  96:main.c        ****             double speedV = ((0.391571*vase*vase)-(3.84672*vase)-227.19)/1000000;
 165              		.loc 1 96 0
 166 00c4 4046     		mov	r0, r8
 167 00c6 FFF7FEFF 		bl	__aeabi_i2d
 168              	.LVL24:
 169 00ca 0446     		mov	r4, r0
 170 00cc 0D46     		mov	r5, r1
 171 00ce 62A3     		adr	r3, .L23
 172 00d0 D3E90023 		ldrd	r2, [r3]
 173 00d4 FFF7FEFF 		bl	__aeabi_dmul
 174              	.LVL25:
 175 00d8 0246     		mov	r2, r0
 176 00da 0B46     		mov	r3, r1
 177 00dc 2046     		mov	r0, r4
 178 00de 2946     		mov	r1, r5
 179 00e0 FFF7FEFF 		bl	__aeabi_dmul
 180              	.LVL26:
 181 00e4 CDE90001 		strd	r0, [sp]
 182 00e8 2046     		mov	r0, r4
 183 00ea 2946     		mov	r1, r5
 184 00ec 5CA3     		adr	r3, .L23+8
 185 00ee D3E90023 		ldrd	r2, [r3]
 186 00f2 FFF7FEFF 		bl	__aeabi_dmul
 187              	.LVL27:
 188 00f6 0246     		mov	r2, r0
ARM GAS  C:\Users\Oskari\AppData\Local\Temp\cc00NhJ5.s 			page 6


 189 00f8 0B46     		mov	r3, r1
 190 00fa DDE90001 		ldrd	r0, [sp]
 191 00fe FFF7FEFF 		bl	__aeabi_dsub
 192              	.LVL28:
 193 0102 59A3     		adr	r3, .L23+16
 194 0104 D3E90023 		ldrd	r2, [r3]
 195 0108 FFF7FEFF 		bl	__aeabi_dsub
 196              	.LVL29:
 197 010c 58A3     		adr	r3, .L23+24
 198 010e D3E90023 		ldrd	r2, [r3]
 199 0112 FFF7FEFF 		bl	__aeabi_ddiv
 200              	.LVL30:
 201 0116 0446     		mov	r4, r0
 202 0118 0D46     		mov	r5, r1
 203              	.LVL31:
  97:main.c        ****             
  98:main.c        ****             //muunnamme doublen intiksi
  99:main.c        ****             int speedOtupla = (int)speedO;
 100:main.c        ****             int speedVtupla = (int)speedV;
 101:main.c        **** 
 102:main.c        ****         
 103:main.c        ****         // asettaa huippunopeuden p채채lle kun tietyt kriteerit t채yttyv채t
 104:main.c        ****         if (speedO >=200){
 204              		.loc 1 104 0
 205 011a 3046     		mov	r0, r6
 206 011c 3946     		mov	r1, r7
 207 011e 0022     		movs	r2, #0
 208 0120 594B     		ldr	r3, .L23+48
 209 0122 FFF7FEFF 		bl	__aeabi_dcmpge
 210              	.LVL32:
 211 0126 10B1     		cbz	r0, .L5
 105:main.c        ****             speedO=speedmax;
 212              		.loc 1 105 0
 213 0128 53A7     		adr	r7, .L23+32
 214 012a D7E90067 		ldrd	r6, [r7]
 215              	.LVL33:
 216              	.L5:
 106:main.c        ****             
 107:main.c        ****         }
 108:main.c        ****         if (speedV >=200){
 217              		.loc 1 108 0
 218 012e 2046     		mov	r0, r4
 219 0130 2946     		mov	r1, r5
 220 0132 0022     		movs	r2, #0
 221 0134 544B     		ldr	r3, .L23+48
 222 0136 FFF7FEFF 		bl	__aeabi_dcmpge
 223              	.LVL34:
 224 013a 10B1     		cbz	r0, .L6
 109:main.c        ****             speedV=speedmax;
 225              		.loc 1 109 0
 226 013c 4EA5     		adr	r5, .L23+32
 227 013e D5E90045 		ldrd	r4, [r5]
 228              	.LVL35:
 229              	.L6:
 110:main.c        ****             
 111:main.c        ****         }
 112:main.c        ****         
ARM GAS  C:\Users\Oskari\AppData\Local\Temp\cc00NhJ5.s 			page 7


 113:main.c        ****         //jos toisen moottorin nopeus laskee tietyn nopeuden alle niin lis채채 toiseen moottoriin n
 114:main.c        ****         if (oikee < 60) {
 230              		.loc 1 114 0
 231 0142 B9F13B0F 		cmp	r9, #59
 232 0146 09DC     		bgt	.L7
 115:main.c        ****             speedV = 220+speedO;
 233              		.loc 1 115 0
 234 0148 3046     		mov	r0, r6
 235 014a 3946     		mov	r1, r7
 236 014c 0022     		movs	r2, #0
 237 014e 4F4B     		ldr	r3, .L23+52
 238 0150 FFF7FEFF 		bl	__aeabi_dadd
 239              	.LVL36:
 240 0154 0446     		mov	r4, r0
 241              	.LVL37:
 242 0156 0D46     		mov	r5, r1
 243              	.LVL38:
 116:main.c        ****             speedO = 0;
 244              		.loc 1 116 0
 245 0158 0026     		movs	r6, #0
 246 015a 0027     		movs	r7, #0
 247              	.LVL39:
 248              	.L7:
 117:main.c        ****         }
 118:main.c        ****         if (vase < 60) {
 249              		.loc 1 118 0
 250 015c B8F13B0F 		cmp	r8, #59
 251 0160 09DC     		bgt	.L8
 119:main.c        ****             speedO = 220+speedV;
 252              		.loc 1 119 0
 253 0162 2046     		mov	r0, r4
 254 0164 2946     		mov	r1, r5
 255 0166 0022     		movs	r2, #0
 256 0168 484B     		ldr	r3, .L23+52
 257 016a FFF7FEFF 		bl	__aeabi_dadd
 258              	.LVL40:
 259 016e 0646     		mov	r6, r0
 260              	.LVL41:
 261 0170 0F46     		mov	r7, r1
 262              	.LVL42:
 120:main.c        ****             speedV = 0;
 263              		.loc 1 120 0
 264 0172 0024     		movs	r4, #0
 265 0174 0025     		movs	r5, #0
 266              	.LVL43:
 267              	.L8:
 121:main.c        ****         }
 122:main.c        ****         if (oikee < 73) {
 268              		.loc 1 122 0
 269 0176 B9F1480F 		cmp	r9, #72
 270 017a 02DC     		bgt	.L9
 123:main.c        ****             speedV = speedmax;
 271              		.loc 1 123 0
 272 017c 3EA5     		adr	r5, .L23+32
 273 017e D5E90045 		ldrd	r4, [r5]
 274              	.LVL44:
 275              	.L9:
ARM GAS  C:\Users\Oskari\AppData\Local\Temp\cc00NhJ5.s 			page 8


 124:main.c        ****                     }
 125:main.c        ****         if (vase < 73) {
 276              		.loc 1 125 0
 277 0182 B8F1480F 		cmp	r8, #72
 278 0186 02DC     		bgt	.L10
 126:main.c        ****             speedO = speedmax;
 279              		.loc 1 126 0
 280 0188 3BA7     		adr	r7, .L23+32
 281 018a D7E90067 		ldrd	r6, [r7]
 282              	.LVL45:
 283              	.L10:
 127:main.c        ****         }
 128:main.c        ****         
 129:main.c        ****         // h채t채tilanteisiin joissa robotti eksyy radalta, k채yt채mme reunimmaisia antureita
 130:main.c        ****         if (ref.r3 > 6000 && dig.l1 == 1 && dig.l3 == 1){
 284              		.loc 1 130 0
 285 018e BDF81620 		ldrh	r2, [sp, #22]
 286 0192 41F27073 		movw	r3, #6000
 287 0196 9A42     		cmp	r2, r3
 288 0198 0CD9     		bls	.L11
 289              		.loc 1 130 0 is_stmt 0 discriminator 1
 290 019a BDF80A30 		ldrh	r3, [sp, #10]
 291 019e 012B     		cmp	r3, #1
 292 01a0 08D1     		bne	.L11
 293              		.loc 1 130 0 discriminator 2
 294 01a2 BDF80830 		ldrh	r3, [sp, #8]
 295 01a6 012B     		cmp	r3, #1
 296 01a8 04D1     		bne	.L11
 131:main.c        ****             speedO = speedmax;
 132:main.c        ****             speedV = 0;
 297              		.loc 1 132 0 is_stmt 1
 298 01aa 0024     		movs	r4, #0
 299              	.LVL46:
 300 01ac 0025     		movs	r5, #0
 131:main.c        ****             speedO = speedmax;
 301              		.loc 1 131 0
 302 01ae 32A7     		adr	r7, .L23+32
 303 01b0 D7E90067 		ldrd	r6, [r7]
 304              	.LVL47:
 305              	.L11:
 133:main.c        ****         }
 134:main.c        ****         if (dig.r3 == 1 && dig.r1 == 1 && ref.l3 > 6000){
 306              		.loc 1 134 0
 307 01b4 BDF80E30 		ldrh	r3, [sp, #14]
 308 01b8 012B     		cmp	r3, #1
 309 01ba 0ED1     		bne	.L12
 310              		.loc 1 134 0 is_stmt 0 discriminator 1
 311 01bc BDF80C30 		ldrh	r3, [sp, #12]
 312 01c0 012B     		cmp	r3, #1
 313 01c2 0AD1     		bne	.L12
 314              		.loc 1 134 0 discriminator 2
 315 01c4 BDF81020 		ldrh	r2, [sp, #16]
 316 01c8 41F27073 		movw	r3, #6000
 317 01cc 9A42     		cmp	r2, r3
 318 01ce 04D9     		bls	.L12
 135:main.c        ****             speedV = speedmax;
 319              		.loc 1 135 0 is_stmt 1
ARM GAS  C:\Users\Oskari\AppData\Local\Temp\cc00NhJ5.s 			page 9


 320 01d0 29A5     		adr	r5, .L23+32
 321 01d2 D5E90045 		ldrd	r4, [r5]
 322              	.LVL48:
 136:main.c        ****             speedO = 0;
 323              		.loc 1 136 0
 324 01d6 0026     		movs	r6, #0
 325              	.LVL49:
 326 01d8 0027     		movs	r7, #0
 327              	.L12:
 328              	.LVL50:
 137:main.c        ****         }
 138:main.c        ****         /*if (ref.l3 > 13000 && ref.l3 < 8000){
 139:main.c        ****             motor_turboturnLeft(255,0);
 140:main.c        ****         }
 141:main.c        ****         if (ref.r3 > 13000 && ref.r3 < 8000){
 142:main.c        ****             motor_turboturnRight(255,0);
 143:main.c        ****         }*/
 144:main.c        ****         
 145:main.c        ****         
 146:main.c        ****         // p채채asiallinen ajaminen, laitteen mittaamat ir arvot muunnetaan suoraan robotin nopeude
 147:main.c        ****              motor_turn(speedO,speedV,0);
 329              		.loc 1 147 0
 330 01da 3046     		mov	r0, r6
 331 01dc 3946     		mov	r1, r7
 332 01de FFF7FEFF 		bl	__aeabi_d2uiz
 333              	.LVL51:
 334 01e2 C6B2     		uxtb	r6, r0
 335              	.LVL52:
 336 01e4 2046     		mov	r0, r4
 337 01e6 2946     		mov	r1, r5
 338 01e8 FFF7FEFF 		bl	__aeabi_d2uiz
 339              	.LVL53:
 340 01ec C4B2     		uxtb	r4, r0
 341              	.LVL54:
 342 01ee 3046     		mov	r0, r6
 343 01f0 2146     		mov	r1, r4
 344 01f2 0022     		movs	r2, #0
 345 01f4 FFF7FEFF 		bl	motor_turn
 346              	.LVL55:
 148:main.c        ****             
 149:main.c        ****             
 150:main.c        ****         // viivoille pys채htyminen ja ohjaimella l채hett채minen
 151:main.c        ****         if(dig.l3 == 0 && dig.l1== 0 && dig.r1== 0 && dig.r3== 0){
 347              		.loc 1 151 0
 348 01f8 BDF80830 		ldrh	r3, [sp, #8]
 349 01fc 002B     		cmp	r3, #0
 350 01fe 7FF419AF 		bne	.L2
 351              		.loc 1 151 0 is_stmt 0 discriminator 1
 352 0202 BDF80A30 		ldrh	r3, [sp, #10]
 353 0206 002B     		cmp	r3, #0
 354 0208 7FF414AF 		bne	.L2
 355              		.loc 1 151 0 discriminator 2
 356 020c BDF80C30 		ldrh	r3, [sp, #12]
 357 0210 002B     		cmp	r3, #0
 358 0212 7FF40FAF 		bne	.L2
 359              		.loc 1 151 0 discriminator 3
 360 0216 BDF80E30 		ldrh	r3, [sp, #14]
ARM GAS  C:\Users\Oskari\AppData\Local\Temp\cc00NhJ5.s 			page 10


 361 021a 002B     		cmp	r3, #0
 362 021c 7FF40AAF 		bne	.L2
 152:main.c        ****         
 153:main.c        ****             // mustaviivo arvo on alussa aina yksi, ja kun se on yksi niin silloin olemme l채ht철vi
 154:main.c        ****             if(mustaviiva==1){
 363              		.loc 1 154 0 is_stmt 1
 364 0220 BAF1010F 		cmp	r10, #1
 365 0224 0BD1     		bne	.L14
 155:main.c        ****                 motor_stop();
 366              		.loc 1 155 0
 367 0226 FFF7FEFF 		bl	motor_stop
 368              	.LVL56:
 156:main.c        ****                 wait_going_down();
 369              		.loc 1 156 0
 370 022a FFF7FEFF 		bl	wait_going_down
 371              	.LVL57:
 157:main.c        ****                 motor_start();
 372              		.loc 1 157 0
 373 022e FFF7FEFF 		bl	motor_start
 374              	.LVL58:
 158:main.c        ****                 motor_turn(speedO,speedV,0);
 375              		.loc 1 158 0
 376 0232 3046     		mov	r0, r6
 377 0234 2146     		mov	r1, r4
 378 0236 0022     		movs	r2, #0
 379 0238 FFF7FEFF 		bl	motor_turn
 380              	.LVL59:
 381 023c 04E0     		b	.L15
 382              	.L14:
 159:main.c        ****                 
 160:main.c        ****             // lis채채 aina yhden mustaviivan kun kulkee semmoisen ohi, joten viimeisell채 eli kolm
 161:main.c        ****             }else if(mustaviiva == 3){
 383              		.loc 1 161 0
 384 023e BAF1030F 		cmp	r10, #3
 385 0242 01D1     		bne	.L15
 162:main.c        ****                 motor_stop();
 386              		.loc 1 162 0
 387 0244 FFF7FEFF 		bl	motor_stop
 388              	.LVL60:
 389              	.L15:
 163:main.c        ****         }
 164:main.c        ****             // viive 92ms on aika joka kuluu kun robotti kulkee yhden viivan yli, testaamalla saatu
 165:main.c        ****             mustaviiva++;
 390              		.loc 1 165 0
 391 0248 0AF1010A 		add	r10, r10, #1
 392              	.LVL61:
 166:main.c        ****             CyDelay(92);
 393              		.loc 1 166 0
 394 024c 5C20     		movs	r0, #92
 395 024e FFF7FEFF 		bl	CyDelay
 396              	.LVL62:
 397 0252 EFE6     		b	.L2
 398              	.L24:
 399 0254 AFF30080 		.align	3
 400              	.L23:
 401 0258 12F8C3CF 		.word	-809240558
 402 025c 7F0FD93F 		.word	1071189887
ARM GAS  C:\Users\Oskari\AppData\Local\Temp\cc00NhJ5.s 			page 11


 403 0260 F5F3A622 		.word	581366773
 404 0264 15C60E40 		.word	1074710037
 405 0268 AE47E17A 		.word	2061584302
 406 026c 14666C40 		.word	1080845844
 407 0270 00000000 		.word	0
 408 0274 80842E41 		.word	1093567616
 409 0278 00000000 		.word	0
 410 027c 00C06F40 		.word	1081065472
 411 0280 00000000 		.word	sensor_isr_handler
 412 0284 00000000 		.word	.LC0
 413 0288 00006940 		.word	1080623104
 414 028c 00806B40 		.word	1080786944
 415              	.LBE2:
 416              		.cfi_endproc
 417              	.LFE63:
 418              		.size	main, .-main
 419              		.section	.text._write,"ax",%progbits
 420              		.align	2
 421              		.global	_write
 422              		.thumb
 423              		.thumb_func
 424              		.type	_write, %function
 425              	_write:
 426              	.LFB64:
 167:main.c        ****     }
 168:main.c        **** 
 169:main.c        ****     }
 170:main.c        ****     
 171:main.c        **** }
 172:main.c        **** 
 173:main.c        **** 
 174:main.c        **** 
 175:main.c        **** #if 0
 176:main.c        **** int rread(void)
 177:main.c        **** {
 178:main.c        ****     SC0_SetDriveMode(PIN_DM_STRONG);
 179:main.c        ****     SC0_Write(1);
 180:main.c        ****     CyDelayUs(10);
 181:main.c        ****     SC0_SetDriveMode(PIN_DM_DIG_HIZ);
 182:main.c        ****     Timer_1_Start();
 183:main.c        ****     uint16_t start = Timer_1_ReadCounter();
 184:main.c        ****     uint16_t end = 0;
 185:main.c        ****     while(!(Timer_1_ReadStatusRegister() & Timer_1_STATUS_TC)) {
 186:main.c        ****         if(SC0_Read() == 0 && end == 0) {
 187:main.c        ****             end = Timer_1_ReadCounter();
 188:main.c        ****         }
 189:main.c        ****     }
 190:main.c        ****     Timer_1_Stop();
 191:main.c        ****     
 192:main.c        ****     return (start - end);
 193:main.c        **** }
 194:main.c        **** #endif
 195:main.c        **** 
 196:main.c        **** /* Don't remove the functions below */
 197:main.c        **** int _write(int file, char *ptr, int len)
 198:main.c        **** {
 427              		.loc 1 198 0
ARM GAS  C:\Users\Oskari\AppData\Local\Temp\cc00NhJ5.s 			page 12


 428              		.cfi_startproc
 429              		@ args = 0, pretend = 0, frame = 0
 430              		@ frame_needed = 0, uses_anonymous_args = 0
 431              	.LVL63:
 432 0000 F8B5     		push	{r3, r4, r5, r6, r7, lr}
 433              		.cfi_def_cfa_offset 24
 434              		.cfi_offset 3, -24
 435              		.cfi_offset 4, -20
 436              		.cfi_offset 5, -16
 437              		.cfi_offset 6, -12
 438              		.cfi_offset 7, -8
 439              		.cfi_offset 14, -4
 440 0002 0C46     		mov	r4, r1
 441 0004 1746     		mov	r7, r2
 442              	.LVL64:
 199:main.c        ****     (void)file; /* Parameter is not used, suppress unused argument warning */
 200:main.c        **** 	int n;
 201:main.c        **** 	for(n = 0; n < len; n++) {
 443              		.loc 1 201 0
 444 0006 0025     		movs	r5, #0
 445 0008 0BE0     		b	.L26
 446              	.LVL65:
 447              	.L28:
 202:main.c        ****         if(*ptr == '\n') UART_1_PutChar('\r');
 448              		.loc 1 202 0
 449 000a 2378     		ldrb	r3, [r4]	@ zero_extendqisi2
 450 000c 0A2B     		cmp	r3, #10
 451 000e 02D1     		bne	.L27
 452              		.loc 1 202 0 is_stmt 0 discriminator 1
 453 0010 0D20     		movs	r0, #13
 454 0012 FFF7FEFF 		bl	UART_1_PutChar
 455              	.LVL66:
 456              	.L27:
 203:main.c        **** 		UART_1_PutChar(*ptr++);
 457              		.loc 1 203 0 is_stmt 1 discriminator 2
 458 0016 661C     		adds	r6, r4, #1
 459              	.LVL67:
 460 0018 2078     		ldrb	r0, [r4]	@ zero_extendqisi2
 461 001a FFF7FEFF 		bl	UART_1_PutChar
 462              	.LVL68:
 201:main.c        ****         if(*ptr == '\n') UART_1_PutChar('\r');
 463              		.loc 1 201 0 discriminator 2
 464 001e 0135     		adds	r5, r5, #1
 465              	.LVL69:
 466              		.loc 1 203 0 discriminator 2
 467 0020 3446     		mov	r4, r6
 468              	.LVL70:
 469              	.L26:
 201:main.c        ****         if(*ptr == '\n') UART_1_PutChar('\r');
 470              		.loc 1 201 0 discriminator 1
 471 0022 BD42     		cmp	r5, r7
 472 0024 F1DB     		blt	.L28
 204:main.c        **** 	}
 205:main.c        **** 	return len;
 206:main.c        **** }
 473              		.loc 1 206 0
 474 0026 3846     		mov	r0, r7
ARM GAS  C:\Users\Oskari\AppData\Local\Temp\cc00NhJ5.s 			page 13


 475 0028 F8BD     		pop	{r3, r4, r5, r6, r7, pc}
 476              		.cfi_endproc
 477              	.LFE64:
 478              		.size	_write, .-_write
 479 002a 00BF     		.section	.text._read,"ax",%progbits
 480              		.align	2
 481              		.global	_read
 482              		.thumb
 483              		.thumb_func
 484              		.type	_read, %function
 485              	_read:
 486              	.LFB65:
 207:main.c        **** 
 208:main.c        **** int _read (int file, char *ptr, int count)
 209:main.c        **** {
 487              		.loc 1 209 0
 488              		.cfi_startproc
 489              		@ args = 0, pretend = 0, frame = 0
 490              		@ frame_needed = 0, uses_anonymous_args = 0
 491              	.LVL71:
 492 0000 F8B5     		push	{r3, r4, r5, r6, r7, lr}
 493              		.cfi_def_cfa_offset 24
 494              		.cfi_offset 3, -24
 495              		.cfi_offset 4, -20
 496              		.cfi_offset 5, -16
 497              		.cfi_offset 6, -12
 498              		.cfi_offset 7, -8
 499              		.cfi_offset 14, -4
 500 0002 0F46     		mov	r7, r1
 501 0004 1446     		mov	r4, r2
 502              	.LVL72:
 210:main.c        ****     int chs = 0;
 503              		.loc 1 210 0
 504 0006 0026     		movs	r6, #0
 211:main.c        ****     char ch;
 212:main.c        ****  
 213:main.c        ****     (void)file; /* Parameter is not used, suppress unused argument warning */
 214:main.c        ****     while(count > 0) {
 505              		.loc 1 214 0
 506 0008 12E0     		b	.L32
 507              	.LVL73:
 508              	.L35:
 215:main.c        ****         ch = UART_1_GetChar();
 509              		.loc 1 215 0
 510 000a FFF7FEFF 		bl	UART_1_GetChar
 511              	.LVL74:
 216:main.c        ****         if(ch != 0) {
 512              		.loc 1 216 0
 513 000e 0546     		mov	r5, r0
 514 0010 70B1     		cbz	r0, .L32
 217:main.c        ****             UART_1_PutChar(ch);
 515              		.loc 1 217 0
 516 0012 FFF7FEFF 		bl	UART_1_PutChar
 517              	.LVL75:
 218:main.c        ****             chs++;
 518              		.loc 1 218 0
 519 0016 0136     		adds	r6, r6, #1
ARM GAS  C:\Users\Oskari\AppData\Local\Temp\cc00NhJ5.s 			page 14


 520              	.LVL76:
 219:main.c        ****             if(ch == '\r') {
 521              		.loc 1 219 0
 522 0018 0D2D     		cmp	r5, #13
 523 001a 03D1     		bne	.L33
 524              	.LVL77:
 220:main.c        ****                 ch = '\n';
 221:main.c        ****                 UART_1_PutChar(ch);
 525              		.loc 1 221 0
 526 001c 0A20     		movs	r0, #10
 527 001e FFF7FEFF 		bl	UART_1_PutChar
 528              	.LVL78:
 220:main.c        ****                 ch = '\n';
 529              		.loc 1 220 0
 530 0022 0A25     		movs	r5, #10
 531              	.LVL79:
 532              	.L33:
 222:main.c        ****             }
 223:main.c        ****             *ptr++ = ch;
 533              		.loc 1 223 0
 534 0024 7B1C     		adds	r3, r7, #1
 535              	.LVL80:
 536 0026 3D70     		strb	r5, [r7]
 224:main.c        ****             count--;
 537              		.loc 1 224 0
 538 0028 013C     		subs	r4, r4, #1
 539              	.LVL81:
 225:main.c        ****             if(ch == '\n') break;
 540              		.loc 1 225 0
 541 002a 0A2D     		cmp	r5, #10
 542 002c 02D0     		beq	.L34
 223:main.c        ****             count--;
 543              		.loc 1 223 0
 544 002e 1F46     		mov	r7, r3
 545              	.LVL82:
 546              	.L32:
 214:main.c        ****         ch = UART_1_GetChar();
 547              		.loc 1 214 0
 548 0030 002C     		cmp	r4, #0
 549 0032 EADC     		bgt	.L35
 550              	.LVL83:
 551              	.L34:
 226:main.c        ****         }
 227:main.c        ****     }
 228:main.c        ****     return chs;
 229:main.c        **** }
 552              		.loc 1 229 0
 553 0034 3046     		mov	r0, r6
 554 0036 F8BD     		pop	{r3, r4, r5, r6, r7, pc}
 555              		.cfi_endproc
 556              	.LFE65:
 557              		.size	_read, .-_read
 558              		.section	.rodata.str1.4,"aMS",%progbits,1
 559              		.align	2
 560              	.LC0:
 561 0000 0A426F6F 		.ascii	"\012Boot\000"
 561      7400
ARM GAS  C:\Users\Oskari\AppData\Local\Temp\cc00NhJ5.s 			page 15


 562 0006 0000     		.text
 563              	.Letext0:
 564              		.file 2 "c:\\program files (x86)\\cypress\\psoc creator\\4.0\\psoc creator\\import\\gnu\\arm\\4.9.
 565              		.file 3 "c:\\program files (x86)\\cypress\\psoc creator\\4.0\\psoc creator\\import\\gnu\\arm\\4.9.
 566              		.file 4 "Generated_Source\\PSoC5/cytypes.h"
 567              		.file 5 ".\\ZumoLibrary/Reflectance.h"
 568              		.file 6 "Generated_Source\\PSoC5/CyLib.h"
 569              		.file 7 ".\\ZumoLibrary/Motor.h"
 570              		.file 8 ".\\ZumoLibrary/IR.h"
 571              		.file 9 "Generated_Source\\PSoC5/UART_1.h"
 572              		.file 10 "Generated_Source\\PSoC5/ADC_Battery.h"
 573              		.file 11 "Generated_Source\\PSoC5/IR_led.h"
 574              		.file 12 "Generated_Source\\PSoC5/sensor_isr.h"
 575              		.file 13 "Generated_Source\\PSoC5/BatteryLed.h"
 576              		.file 14 "Generated_Source\\PSoC5/core_cm3.h"
 577              		.file 15 "<built-in>"